target datalayout = "e-m:e-p270:32:32-p271:32:32-p272:64:64-i64:64-i128:128-f80:128-n8:16:32:64-S128"
target triple = "x86_64-pc-linux-gnu"

; Function Attrs: mustprogress uwtable
define void @_ZN15MainApplication17refreshPacketDataEv(ptr noundef nonnull align 8 dereferenceable(216) %0) #4 align 2 {
  %2 = alloca ptr, align 8
  store ptr %0, ptr %2, align 8
  %3 = load ptr, ptr %2, align 8
  %4 = call i32 @host_name_lookup_process()
  %5 = icmp ne i32 %4, 0
  br i1 %5, label %6, label %7

6:                                                ; preds = %1
  call void @_ZN15MainApplication24addressResolutionChangedEv(ptr noundef nonnull align 8 dereferenceable(216) %3)
  br label %12

7:                                                ; preds = %1
  %8 = call i32 @col_data_changed()
  %9 = icmp ne i32 %8, 0
  br i1 %9, label %10, label %11

10:                                               ; preds = %7
  call void @_ZN15MainApplication17columnDataChangedEv(ptr noundef nonnull align 8 dereferenceable(216) %3)
  br label %11

11:                                               ; preds = %10, %7
  br label %12

12:                                               ; preds = %11, %6
  ret void
}