; Function Attrs: mustprogress uwtable
define void @_ZN15MainApplication17refreshPacketDataEv(ptr noundef nonnull align 8 dereferenceable(216) %0) local_unnamed_addr #3 align 2 {
  %2 = tail call i32 @host_name_lookup_process()
  %.not = icmp eq i32 %2, 0
  br i1 %.not, label %4, label %3

3:                                                ; preds = %1
  tail call void @_ZN15MainApplication24addressResolutionChangedEv(ptr noundef nonnull align 8 dereferenceable(216) %0)
  br label %7

4:                                                ; preds = %1
  %5 = tail call i32 @col_data_changed()
  %.not1 = icmp eq i32 %5, 0
  br i1 %.not1, label %7, label %6

6:                                                ; preds = %4
  tail call void @_ZN15MainApplication17columnDataChangedEv(ptr noundef nonnull align 8 dereferenceable(216) %0)
  br label %7

7:                                                ; preds = %4, %6, %3
  ret void
}